target datalayout = "e-m:e-p270:32:32-p271:32:32-p272:64:64-i64:64-i128:128-f80:128-n8:16:32:64-S128"
target triple = "x86_64-pc-linux-gnu"

@eTimestampError = internal global i64 0, align 8
@.str.66 = private unnamed_addr constant [21 x i8] c"BIO_new(BIO_s_mem())\00", align 1
@.str.67 = private unnamed_addr constant [16 x i8] c"i2a_ASN1_OBJECT\00", align 1

; Function Attrs: nounwind sspstrong uwtable
define internal i64 @get_asn1obj(ptr noundef %0) #0 {
  %2 = alloca ptr, align 8
  %3 = alloca ptr, align 8
  %4 = alloca i64, align 8
  %5 = alloca i32, align 4
  store ptr %0, ptr %2, align 8, !tbaa !63
  call void @llvm.lifetime.start.p0(i64 8, ptr %3) #16
  call void @llvm.lifetime.start.p0(i64 8, ptr %4) #16
  call void @llvm.lifetime.start.p0(i64 4, ptr %5) #16
  %6 = load ptr, ptr %2, align 8, !tbaa !63
  %7 = call i32 @OBJ_obj2nid(ptr noundef %6)
  store i32 %7, ptr %5, align 4, !tbaa !29
  %8 = icmp ne i32 %7, 0
  br i1 %8, label %9, label %13

9:                                                ; preds = %1
  %10 = load i32, ptr %5, align 4, !tbaa !29
  %11 = call ptr @OBJ_nid2sn(i32 noundef %10)
  %12 = call i64 @rb_str_new_cstr(ptr noundef %11)
  store i64 %12, ptr %4, align 8, !tbaa !6
  br label %31

13:                                               ; preds = %1
  %14 = call ptr @BIO_s_mem()
  %15 = call ptr @BIO_new(ptr noundef %14)
  store ptr %15, ptr %3, align 8, !tbaa !21
  %16 = icmp ne ptr %15, null
  br i1 %16, label %19, label %17

17:                                               ; preds = %13
  %18 = load i64, ptr @eTimestampError, align 8, !tbaa !6
  call void (i64, ptr, ...) @ossl_raise(i64 noundef %18, ptr noundef @.str.66) #17
  unreachable

19:                                               ; preds = %13
  %20 = load ptr, ptr %3, align 8, !tbaa !21
  %21 = load ptr, ptr %2, align 8, !tbaa !63
  %22 = call i32 @i2a_ASN1_OBJECT(ptr noundef %20, ptr noundef %21)
  %23 = icmp sle i32 %22, 0
  br i1 %23, label %24, label %28

24:                                               ; preds = %19
  %25 = load ptr, ptr %3, align 8, !tbaa !21
  %26 = call i32 @BIO_free(ptr noundef %25)
  %27 = load i64, ptr @eTimestampError, align 8, !tbaa !6
  call void (i64, ptr, ...) @ossl_raise(i64 noundef %27, ptr noundef @.str.67) #17
  unreachable

28:                                               ; preds = %19
  %29 = load ptr, ptr %3, align 8, !tbaa !21
  %30 = call i64 @ossl_membio2str(ptr noundef %29)
  store i64 %30, ptr %4, align 8, !tbaa !6
  br label %31

31:                                               ; preds = %28, %9
  %32 = load i64, ptr %4, align 8, !tbaa !6
  call void @llvm.lifetime.end.p0(i64 4, ptr %5) #16
  call void @llvm.lifetime.end.p0(i64 8, ptr %4) #16
  call void @llvm.lifetime.end.p0(i64 8, ptr %3) #16
  ret i64 %32
}