; Function Attrs: nounwind sspstrong uwtable
define internal fastcc i64 @get_asn1obj(ptr noundef %0) unnamed_addr #0 {
  %2 = tail call i32 @OBJ_obj2nid(ptr noundef %0) #7
  %.not = icmp eq i32 %2, 0
  br i1 %.not, label %6, label %3

3:                                                ; preds = %1
  %4 = tail call ptr @OBJ_nid2sn(i32 noundef %2) #7
  %5 = tail call i64 @rb_str_new_cstr(ptr noundef %4) #7
  br label %19

6:                                                ; preds = %1
  %7 = tail call ptr @BIO_s_mem() #7
  %8 = tail call ptr @BIO_new(ptr noundef %7) #7
  %.not8 = icmp eq ptr %8, null
  br i1 %.not8, label %9, label %11

9:                                                ; preds = %6
  %10 = load i64, ptr @eTimestampError, align 8, !tbaa !6
  tail call void (i64, ptr, ...) @ossl_raise(i64 noundef %10, ptr noundef nonnull @.str.66) #8
  unreachable

11:                                               ; preds = %6
  %12 = tail call i32 @i2a_ASN1_OBJECT(ptr noundef nonnull %8, ptr noundef %0) #7
  %13 = icmp slt i32 %12, 1
  br i1 %13, label %14, label %17

14:                                               ; preds = %11
  %15 = tail call i32 @BIO_free(ptr noundef nonnull %8) #7
  %16 = load i64, ptr @eTimestampError, align 8, !tbaa !6
  tail call void (i64, ptr, ...) @ossl_raise(i64 noundef %16, ptr noundef nonnull @.str.67) #8
  unreachable

17:                                               ; preds = %11
  %18 = tail call i64 @ossl_membio2str(ptr noundef nonnull %8) #7
  br label %19

19:                                               ; preds = %17, %3
  %.0 = phi i64 [ %5, %3 ], [ %18, %17 ]
  ret i64 %.0
}